	.text
	.syntax unified
	.eabi_attribute	67, "2.09"	@ Tag_conformance
	.cpu	cortex-m23
	.eabi_attribute	6, 16	@ Tag_CPU_arch
	.eabi_attribute	7, 77	@ Tag_CPU_arch_profile
	.eabi_attribute	8, 0	@ Tag_ARM_ISA_use
	.eabi_attribute	9, 3	@ Tag_THUMB_ISA_use
	.eabi_attribute	34, 0	@ Tag_CPU_unaligned_access
	.eabi_attribute	17, 1	@ Tag_ABI_PCS_GOT_use
	.eabi_attribute	20, 2	@ Tag_ABI_FP_denormal
	.eabi_attribute	21, 0	@ Tag_ABI_FP_exceptions
	.eabi_attribute	23, 1	@ Tag_ABI_FP_number_model
	.eabi_attribute	24, 1	@ Tag_ABI_align_needed
	.eabi_attribute	25, 1	@ Tag_ABI_align_preserved
	.eabi_attribute	38, 1	@ Tag_ABI_FP_16bit_format
	.eabi_attribute	18, 2	@ Tag_ABI_PCS_wchar_t
	.eabi_attribute	26, 1	@ Tag_ABI_enum_size
	.eabi_attribute	14, 0	@ Tag_ABI_PCS_R9_use
	.file	"hid_transfer.c"
	.file	1 "C:\\Keil_v5\\ARM\\ARMCLANG\\Bin\\..\\include" "stdint.h"
	.file	2 "D:\\Github Projeleri\\Bootloader\\Nuvoton\\KEIL" "../hid_transfer.c"
	.file	3 "D:/Software Tools/Keil/Nuvoton/Library/Device/Nuvoton/M251/Include" "usbd_reg.h"
	.section	.text.USBD_IRQHandler,"ax",%progbits
	.hidden	USBD_IRQHandler                 @ -- Begin function USBD_IRQHandler
	.globl	USBD_IRQHandler
	.p2align	2
	.type	USBD_IRQHandler,%function
	.code	16                              @ @USBD_IRQHandler
	.thumb_func
USBD_IRQHandler:
.Lfunc_begin0:
	.loc	2 21 0                          @ ../hid_transfer.c:21:0
	.fnstart
	.cfi_sections .debug_frame
	.cfi_startproc
@ %bb.0:
	.save	{r4, r5, r6, lr}
	push	{r4, r5, r6, lr}
	.cfi_def_cfa_offset 16
	.cfi_offset lr, -4
	.cfi_offset r6, -8
	.cfi_offset r5, -12
	.cfi_offset r4, -16
	ldr	r4, __arm_cp.0_0
.Ltmp0:
	.loc	2 22 26 prologue_end            @ ../hid_transfer.c:22:26
	ldr	r5, [r4]
.Ltmp1:
	@DEBUG_VALUE: USBD_IRQHandler:u32IntSts <- $r5
	.loc	2 23 25                         @ ../hid_transfer.c:23:25
	ldr	r6, [r4, #12]
.Ltmp2:
	@DEBUG_VALUE: USBD_IRQHandler:u32State <- [DW_OP_constu 12303, DW_OP_and, DW_OP_stack_value] $r6
	.loc	2 26 9                          @ ../hid_transfer.c:26:9
	lsls	r0, r5, #29
	bpl	.LBB0_5
.Ltmp3:
@ %bb.1:
	@DEBUG_VALUE: USBD_IRQHandler:u32State <- [DW_OP_constu 12303, DW_OP_and, DW_OP_stack_value] $r6
	@DEBUG_VALUE: USBD_IRQHandler:u32IntSts <- $r5
	.loc	2 0 9 is_stmt 0                 @ ../hid_transfer.c:0:9
	movs	r0, #4
.Ltmp4:
	.loc	2 29 9 is_stmt 1                @ ../hid_transfer.c:29:9
	str	r0, [r4]
.Ltmp5:
	.loc	2 31 13                         @ ../hid_transfer.c:31:13
	ldr	r1, [r4, #16]
	.loc	2 0 0 is_stmt 0                 @ ../hid_transfer.c:0:0
	ldr	r0, [r4, #12]
.Ltmp6:
	.loc	2 31 13                         @ ../hid_transfer.c:31:13
	lsls	r1, r1, #31
	beq	.LBB0_3
.Ltmp7:
@ %bb.2:
	@DEBUG_VALUE: USBD_IRQHandler:u32State <- [DW_OP_constu 12303, DW_OP_and, DW_OP_stack_value] $r6
	@DEBUG_VALUE: USBD_IRQHandler:u32IntSts <- $r5
	.loc	2 0 13                          @ ../hid_transfer.c:0:13
	movw	r1, #2000
	orrs	r0, r1
	b	.LBB0_4
.Ltmp8:
.LBB0_3:
	@DEBUG_VALUE: USBD_IRQHandler:u32State <- [DW_OP_constu 12303, DW_OP_and, DW_OP_stack_value] $r6
	@DEBUG_VALUE: USBD_IRQHandler:u32IntSts <- $r5
	movs	r1, #128
	bics	r0, r1
.Ltmp9:
.LBB0_4:
	@DEBUG_VALUE: USBD_IRQHandler:u32State <- [DW_OP_constu 12303, DW_OP_and, DW_OP_stack_value] $r6
	@DEBUG_VALUE: USBD_IRQHandler:u32IntSts <- $r5
	str	r0, [r4, #12]
.Ltmp10:
.LBB0_5:
	@DEBUG_VALUE: USBD_IRQHandler:u32State <- [DW_OP_constu 12303, DW_OP_and, DW_OP_stack_value] $r6
	@DEBUG_VALUE: USBD_IRQHandler:u32IntSts <- $r5
	.loc	2 44 9 is_stmt 1                @ ../hid_transfer.c:44:9
	lsls	r0, r5, #31
	beq	.LBB0_12
.Ltmp11:
@ %bb.6:
	@DEBUG_VALUE: USBD_IRQHandler:u32State <- [DW_OP_constu 12303, DW_OP_and, DW_OP_stack_value] $r6
	@DEBUG_VALUE: USBD_IRQHandler:u32IntSts <- $r5
	.loc	2 0 9 is_stmt 0                 @ ../hid_transfer.c:0:9
	movs	r0, #1
.Ltmp12:
	.loc	2 47 9 is_stmt 1                @ ../hid_transfer.c:47:9
	str	r0, [r4]
	.loc	2 49 13                         @ ../hid_transfer.c:49:13
	lsls	r0, r6, #31
	beq	.LBB0_8
.Ltmp13:
@ %bb.7:
	@DEBUG_VALUE: USBD_IRQHandler:u32State <- [DW_OP_constu 12303, DW_OP_and, DW_OP_stack_value] $r6
	@DEBUG_VALUE: USBD_IRQHandler:u32IntSts <- $r5
	.loc	2 52 13                         @ ../hid_transfer.c:52:13
	ldr	r0, [r4, #12]
	movw	r1, #2000
	orrs	r1, r0
	str	r1, [r4, #12]
	.loc	2 53 13                         @ ../hid_transfer.c:53:13
	bl	USBD_SwReset
.Ltmp14:
.LBB0_8:
	@DEBUG_VALUE: USBD_IRQHandler:u32State <- [DW_OP_constu 12303, DW_OP_and, DW_OP_stack_value] $r6
	@DEBUG_VALUE: USBD_IRQHandler:u32IntSts <- $r5
	.loc	2 56 13                         @ ../hid_transfer.c:56:13
	lsls	r0, r6, #30
	bpl	.LBB0_10
.Ltmp15:
@ %bb.9:
	@DEBUG_VALUE: USBD_IRQHandler:u32State <- [DW_OP_constu 12303, DW_OP_and, DW_OP_stack_value] $r6
	@DEBUG_VALUE: USBD_IRQHandler:u32IntSts <- $r5
	.loc	2 59 13                         @ ../hid_transfer.c:59:13
	ldr	r0, [r4, #12]
	movs	r1, #16
	bics	r0, r1
	str	r0, [r4, #12]
.Ltmp16:
.LBB0_10:
	@DEBUG_VALUE: USBD_IRQHandler:u32State <- [DW_OP_constu 12303, DW_OP_and, DW_OP_stack_value] $r6
	@DEBUG_VALUE: USBD_IRQHandler:u32IntSts <- $r5
	.loc	2 62 13                         @ ../hid_transfer.c:62:13
	lsls	r0, r6, #29
	bpl	.LBB0_12
.Ltmp17:
@ %bb.11:
	@DEBUG_VALUE: USBD_IRQHandler:u32State <- [DW_OP_constu 12303, DW_OP_and, DW_OP_stack_value] $r6
	@DEBUG_VALUE: USBD_IRQHandler:u32IntSts <- $r5
	.loc	2 65 13                         @ ../hid_transfer.c:65:13
	ldr	r0, [r4, #12]
	movw	r1, #2000
	orrs	r1, r0
	str	r1, [r4, #12]
.Ltmp18:
.LBB0_12:
	@DEBUG_VALUE: USBD_IRQHandler:u32State <- [DW_OP_constu 12303, DW_OP_and, DW_OP_stack_value] $r6
	@DEBUG_VALUE: USBD_IRQHandler:u32IntSts <- $r5
	.loc	2 70 9                          @ ../hid_transfer.c:70:9
	lsls	r0, r5, #28
	bpl	.LBB0_14
.Ltmp19:
@ %bb.13:
	@DEBUG_VALUE: USBD_IRQHandler:u32State <- [DW_OP_constu 12303, DW_OP_and, DW_OP_stack_value] $r6
	@DEBUG_VALUE: USBD_IRQHandler:u32IntSts <- $r5
	.loc	2 0 9 is_stmt 0                 @ ../hid_transfer.c:0:9
	movs	r0, #8
.Ltmp20:
	.loc	2 73 9 is_stmt 1                @ ../hid_transfer.c:73:9
	str	r0, [r4]
.Ltmp21:
.LBB0_14:
	@DEBUG_VALUE: USBD_IRQHandler:u32State <- [DW_OP_constu 12303, DW_OP_and, DW_OP_stack_value] $r6
	@DEBUG_VALUE: USBD_IRQHandler:u32IntSts <- $r5
	.loc	2 76 9                          @ ../hid_transfer.c:76:9
	lsls	r0, r5, #30
	bpl	.LBB0_33
.Ltmp22:
@ %bb.15:
	@DEBUG_VALUE: USBD_IRQHandler:u32State <- [DW_OP_constu 12303, DW_OP_and, DW_OP_stack_value] $r6
	@DEBUG_VALUE: USBD_IRQHandler:u32IntSts <- $r5
	.loc	2 79 13                         @ ../hid_transfer.c:79:13
	cmp	r5, #0
	bpl	.LBB0_17
.Ltmp23:
@ %bb.16:
	@DEBUG_VALUE: USBD_IRQHandler:u32State <- [DW_OP_constu 12303, DW_OP_and, DW_OP_stack_value] $r6
	@DEBUG_VALUE: USBD_IRQHandler:u32IntSts <- $r5
	.loc	2 0 13 is_stmt 0                @ ../hid_transfer.c:0:13
	movs	r0, #1
	lsls	r1, r0, #31
.Ltmp24:
	.loc	2 83 13 is_stmt 1               @ ../hid_transfer.c:83:13
	str	r1, [r4]
	ldr	r1, __arm_cp.0_1
	.loc	2 85 13                         @ ../hid_transfer.c:85:13
	ldr	r2, [r1]
	orrs	r2, r0
	str	r2, [r1]
	.loc	2 86 13                         @ ../hid_transfer.c:86:13
	ldr	r2, [r1, #16]
	orrs	r2, r0
	str	r2, [r1, #16]
	.loc	2 87 13                         @ ../hid_transfer.c:87:13
	bl	USBD_ProcessSetupPacket
.Ltmp25:
.LBB0_17:
	@DEBUG_VALUE: USBD_IRQHandler:u32State <- [DW_OP_constu 12303, DW_OP_and, DW_OP_stack_value] $r6
	@DEBUG_VALUE: USBD_IRQHandler:u32IntSts <- $r5
	.loc	2 0 13 is_stmt 0                @ ../hid_transfer.c:0:13
	movs	r6, #1
.Ltmp26:
	.loc	2 91 13 is_stmt 1               @ ../hid_transfer.c:91:13
	lsls	r0, r5, #15
	bpl	.LBB0_19
.Ltmp27:
@ %bb.18:
	@DEBUG_VALUE: USBD_IRQHandler:u32IntSts <- $r5
	.loc	2 0 13 is_stmt 0                @ ../hid_transfer.c:0:13
	lsls	r0, r6, #16
.Ltmp28:
	.loc	2 94 13 is_stmt 1               @ ../hid_transfer.c:94:13
	str	r0, [r4]
	.loc	2 96 13                         @ ../hid_transfer.c:96:13
	bl	USBD_CtrlIn
.Ltmp29:
.LBB0_19:
	@DEBUG_VALUE: USBD_IRQHandler:u32IntSts <- $r5
	.loc	2 99 13                         @ ../hid_transfer.c:99:13
	lsls	r0, r5, #14
	bpl	.LBB0_21
.Ltmp30:
@ %bb.20:
	@DEBUG_VALUE: USBD_IRQHandler:u32IntSts <- $r5
	.loc	2 0 13 is_stmt 0                @ ../hid_transfer.c:0:13
	lsls	r0, r6, #17
.Ltmp31:
	.loc	2 102 13 is_stmt 1              @ ../hid_transfer.c:102:13
	str	r0, [r4]
	.loc	2 104 13                        @ ../hid_transfer.c:104:13
	bl	USBD_CtrlOut
.Ltmp32:
.LBB0_21:
	@DEBUG_VALUE: USBD_IRQHandler:u32IntSts <- $r5
	.loc	2 107 13                        @ ../hid_transfer.c:107:13
	lsls	r0, r5, #13
	bpl	.LBB0_23
.Ltmp33:
@ %bb.22:
	@DEBUG_VALUE: USBD_IRQHandler:u32IntSts <- $r5
	.loc	2 0 13 is_stmt 0                @ ../hid_transfer.c:0:13
	lsls	r0, r6, #18
.Ltmp34:
	.loc	2 110 13 is_stmt 1              @ ../hid_transfer.c:110:13
	str	r0, [r4]
.Ltmp35:
.LBB0_23:
	@DEBUG_VALUE: USBD_IRQHandler:u32IntSts <- $r5
	.loc	2 115 13                        @ ../hid_transfer.c:115:13
	lsls	r0, r5, #12
	bpl	.LBB0_25
.Ltmp36:
@ %bb.24:
	@DEBUG_VALUE: USBD_IRQHandler:u32IntSts <- $r5
	.loc	2 0 13 is_stmt 0                @ ../hid_transfer.c:0:13
	lsls	r0, r6, #19
.Ltmp37:
	.loc	2 118 13 is_stmt 1              @ ../hid_transfer.c:118:13
	str	r0, [r4]
	.loc	2 120 13                        @ ../hid_transfer.c:120:13
	bl	EP3_Handler
.Ltmp38:
.LBB0_25:
	@DEBUG_VALUE: USBD_IRQHandler:u32IntSts <- $r5
	.loc	2 123 13                        @ ../hid_transfer.c:123:13
	lsls	r0, r5, #11
	bpl	.LBB0_27
.Ltmp39:
@ %bb.26:
	@DEBUG_VALUE: USBD_IRQHandler:u32IntSts <- $r5
	.loc	2 0 13 is_stmt 0                @ ../hid_transfer.c:0:13
	lsls	r0, r6, #20
.Ltmp40:
	.loc	2 126 13 is_stmt 1              @ ../hid_transfer.c:126:13
	str	r0, [r4]
.Ltmp41:
.LBB0_27:
	@DEBUG_VALUE: USBD_IRQHandler:u32IntSts <- $r5
	.loc	2 129 13                        @ ../hid_transfer.c:129:13
	lsls	r0, r5, #10
	bpl	.LBB0_29
.Ltmp42:
@ %bb.28:
	@DEBUG_VALUE: USBD_IRQHandler:u32IntSts <- $r5
	.loc	2 0 13 is_stmt 0                @ ../hid_transfer.c:0:13
	lsls	r0, r6, #21
.Ltmp43:
	.loc	2 132 13 is_stmt 1              @ ../hid_transfer.c:132:13
	str	r0, [r4]
.Ltmp44:
.LBB0_29:
	@DEBUG_VALUE: USBD_IRQHandler:u32IntSts <- $r5
	.loc	2 135 13                        @ ../hid_transfer.c:135:13
	lsls	r0, r5, #9
	bpl	.LBB0_31
.Ltmp45:
@ %bb.30:
	@DEBUG_VALUE: USBD_IRQHandler:u32IntSts <- $r5
	.loc	2 0 13 is_stmt 0                @ ../hid_transfer.c:0:13
	lsls	r0, r6, #22
.Ltmp46:
	.loc	2 138 13 is_stmt 1              @ ../hid_transfer.c:138:13
	str	r0, [r4]
.Ltmp47:
.LBB0_31:
	@DEBUG_VALUE: USBD_IRQHandler:u32IntSts <- $r5
	.loc	2 141 13                        @ ../hid_transfer.c:141:13
	lsls	r0, r5, #8
	bpl	.LBB0_33
.Ltmp48:
@ %bb.32:
	@DEBUG_VALUE: USBD_IRQHandler:u32IntSts <- $r5
	.loc	2 0 13 is_stmt 0                @ ../hid_transfer.c:0:13
	lsls	r0, r6, #23
.Ltmp49:
	.loc	2 144 13 is_stmt 1              @ ../hid_transfer.c:144:13
	str	r0, [r4]
.Ltmp50:
.LBB0_33:
	@DEBUG_VALUE: USBD_IRQHandler:u32IntSts <- $r5
	.loc	2 147 1                         @ ../hid_transfer.c:147:1
	pop	{r4, r5, r6, pc}
.Ltmp51:
	.p2align	2
@ %bb.34:
	.loc	2 0 1 is_stmt 0                 @ ../hid_transfer.c:0:1
__arm_cp.0_0:
	.long	1074528260                      @ 0x400c0004
.Lcpi_end0:
	.size	__arm_cp.0_0, .Lcpi_end0-__arm_cp.0_0
__arm_cp.0_1:
	.long	1074529548                      @ 0x400c050c
.Lcpi_end1:
	.size	__arm_cp.0_1, .Lcpi_end1-__arm_cp.0_1
.Lfunc_end0:
	.size	USBD_IRQHandler, .Lfunc_end0-USBD_IRQHandler
	.cfi_endproc
	.cantunwind
	.fnend
                                        @ -- End function
	.section	.text.EP3_Handler,"ax",%progbits
	.hidden	EP3_Handler                     @ -- Begin function EP3_Handler
	.globl	EP3_Handler
	.p2align	2
	.type	EP3_Handler,%function
	.code	16                              @ @EP3_Handler
	.thumb_func
EP3_Handler:
.Lfunc_begin1:
	.loc	2 161 0 is_stmt 1               @ ../hid_transfer.c:161:0
	.fnstart
	.cfi_startproc
@ %bb.0:
	.save	{r4, r5, r7, lr}
	push	{r4, r5, r7, lr}
	.cfi_def_cfa_offset 16
	.cfi_offset lr, -4
	.cfi_offset r7, -8
	.cfi_offset r5, -12
	.cfi_offset r4, -16
	ldr	r4, __arm_cp.1_0
.Ltmp52:
	.loc	2 164 39 prologue_end           @ ../hid_transfer.c:164:39
	ldr	r0, [r4]
	ldr	r1, __arm_cp.1_1
	.loc	2 164 37 is_stmt 0              @ ../hid_transfer.c:164:37
	adds	r1, r0, r1
.Ltmp53:
	@DEBUG_VALUE: EP3_Handler:ptr <- $r1
	.loc	2 165 5 is_stmt 1               @ ../hid_transfer.c:165:5
	ldr	r5, __arm_cp.1_2
	adds	r0, r5, #4
	bl	USBD_MemCopy
.Ltmp54:
	.loc	2 0 5 is_stmt 0                 @ ../hid_transfer.c:0:5
	movs	r0, #1
	.loc	2 166 19 is_stmt 1              @ ../hid_transfer.c:166:19
	strb	r0, [r5]
	movs	r0, #64
	.loc	2 167 5                         @ ../hid_transfer.c:167:5
	str	r0, [r4, #4]
	.loc	2 168 1                         @ ../hid_transfer.c:168:1
	pop	{r4, r5, r7, pc}
.Ltmp55:
	.p2align	2
@ %bb.1:
	.loc	2 0 1 is_stmt 0                 @ ../hid_transfer.c:0:1
__arm_cp.1_0:
	.long	1074529584                      @ 0x400c0530
.Lcpi_end2:
	.size	__arm_cp.1_0, .Lcpi_end2-__arm_cp.1_0
__arm_cp.1_1:
	.long	1074528512                      @ 0x400c0100
.Lcpi_end3:
	.size	__arm_cp.1_1, .Lcpi_end3-__arm_cp.1_1
__arm_cp.1_2:
	.long	.L_MergedGlobals
.Lcpi_end4:
	.size	__arm_cp.1_2, .Lcpi_end4-__arm_cp.1_2
.Lfunc_end1:
	.size	EP3_Handler, .Lfunc_end1-EP3_Handler
	.cfi_endproc
	.cantunwind
	.fnend
                                        @ -- End function
	.section	.text.EP2_Handler,"ax",%progbits
	.hidden	EP2_Handler                     @ -- Begin function EP2_Handler
	.globl	EP2_Handler
	.p2align	2
	.type	EP2_Handler,%function
	.code	16                              @ @EP2_Handler
	.thumb_func
EP2_Handler:
.Lfunc_begin2:
	.loc	2 152 0 is_stmt 1               @ ../hid_transfer.c:152:0
	.fnstart
	.cfi_startproc
@ %bb.0:
	.save	{r4, lr}
	push	{r4, lr}
	.cfi_def_cfa_offset 8
	.cfi_offset lr, -4
	.cfi_offset r4, -8
	ldr	r4, __arm_cp.2_0
.Ltmp56:
	.loc	2 154 39 prologue_end           @ ../hid_transfer.c:154:39
	ldr	r0, [r4]
	ldr	r1, __arm_cp.2_1
	.loc	2 154 37 is_stmt 0              @ ../hid_transfer.c:154:37
	adds	r0, r0, r1
.Ltmp57:
	@DEBUG_VALUE: EP2_Handler:ptr <- $r0
	.loc	2 156 5 is_stmt 1               @ ../hid_transfer.c:156:5
	ldr	r1, __arm_cp.2_2
	bl	USBD_MemCopy
.Ltmp58:
	.loc	2 0 5 is_stmt 0                 @ ../hid_transfer.c:0:5
	movs	r0, #64
	.loc	2 157 5 is_stmt 1               @ ../hid_transfer.c:157:5
	str	r0, [r4, #4]
	.loc	2 158 1                         @ ../hid_transfer.c:158:1
	pop	{r4, pc}
.Ltmp59:
	.p2align	2
@ %bb.1:
	.loc	2 0 1 is_stmt 0                 @ ../hid_transfer.c:0:1
__arm_cp.2_0:
	.long	1074529568                      @ 0x400c0520
.Lcpi_end5:
	.size	__arm_cp.2_0, .Lcpi_end5-__arm_cp.2_0
__arm_cp.2_1:
	.long	1074528512                      @ 0x400c0100
.Lcpi_end6:
	.size	__arm_cp.2_1, .Lcpi_end6-__arm_cp.2_1
__arm_cp.2_2:
	.long	GidenData
.Lcpi_end7:
	.size	__arm_cp.2_2, .Lcpi_end7-__arm_cp.2_2
.Lfunc_end2:
	.size	EP2_Handler, .Lfunc_end2-EP2_Handler
	.cfi_endproc
	.cantunwind
	.fnend
                                        @ -- End function
	.section	.text.USBD_MemCopy,"ax",%progbits
	.p2align	1                               @ -- Begin function USBD_MemCopy
	.type	USBD_MemCopy,%function
	.code	16                              @ @USBD_MemCopy
	.thumb_func
USBD_MemCopy:
.Lfunc_begin3:
	.file	4 "D:/Software Tools/Keil/Nuvoton/Library/StdDriver/inc" "usbd.h"
	.loc	4 565 0 is_stmt 1               @ D:/Software Tools/Keil/Nuvoton/Library/StdDriver/inc\usbd.h:565:0
	.fnstart
	.cfi_startproc
@ %bb.0:
	@DEBUG_VALUE: USBD_MemCopy:dest <- $r0
	@DEBUG_VALUE: USBD_MemCopy:src <- $r1
	movs	r2, #0
	@DEBUG_VALUE: USBD_MemCopy:size <- 64
.Ltmp60:
.LBB3_1:                                @ =>This Inner Loop Header: Depth=1
	@DEBUG_VALUE: USBD_MemCopy:dest <- [DW_OP_LLVM_arg 0, DW_OP_LLVM_arg 0, DW_OP_plus, DW_OP_stack_value] undef
	@DEBUG_VALUE: USBD_MemCopy:src <- [DW_OP_LLVM_arg 0, DW_OP_LLVM_arg 0, DW_OP_plus, DW_OP_stack_value] undef
	@DEBUG_VALUE: USBD_MemCopy:size <- [DW_OP_consts 18446744073709551615, DW_OP_mul, DW_OP_consts 64, DW_OP_plus, DW_OP_constu 1, DW_OP_minus, DW_OP_stack_value] $r2
	.loc	4 566 5 prologue_end            @ D:/Software Tools/Keil/Nuvoton/Library/StdDriver/inc\usbd.h:566:5
	cmp	r2, #64
	beq	.LBB3_3
.Ltmp61:
@ %bb.2:                                @   in Loop: Header=BB3_1 Depth=1
	@DEBUG_VALUE: USBD_MemCopy:size <- [DW_OP_consts 18446744073709551615, DW_OP_mul, DW_OP_consts 64, DW_OP_plus, DW_OP_constu 1, DW_OP_minus, DW_OP_stack_value] $r2
	@DEBUG_VALUE: USBD_MemCopy:src <- [DW_OP_LLVM_arg 0, DW_OP_consts 1, DW_OP_LLVM_arg 0, DW_OP_plus, DW_OP_plus, DW_OP_stack_value] undef
	@DEBUG_VALUE: USBD_MemCopy:size <- [DW_OP_consts 18446744073709551615, DW_OP_mul, DW_OP_consts 63, DW_OP_plus, DW_OP_stack_value] $r2
	.loc	4 566 30 is_stmt 0              @ D:/Software Tools/Keil/Nuvoton/Library/StdDriver/inc\usbd.h:566:30
	ldrb	r3, [r1, r2]
.Ltmp62:
	@DEBUG_VALUE: USBD_MemCopy:dest <- [DW_OP_LLVM_arg 0, DW_OP_consts 1, DW_OP_LLVM_arg 0, DW_OP_plus, DW_OP_plus, DW_OP_stack_value] undef
	.loc	4 566 28                        @ D:/Software Tools/Keil/Nuvoton/Library/StdDriver/inc\usbd.h:566:28
	strb	r3, [r0, r2]
	.loc	4 566 5                         @ D:/Software Tools/Keil/Nuvoton/Library/StdDriver/inc\usbd.h:566:5
	adds	r2, r2, #1
.Ltmp63:
	.loc	4 0 5                           @ D:/Software Tools/Keil/Nuvoton/Library/StdDriver/inc\usbd.h:0:5
	b	.LBB3_1
.Ltmp64:
.LBB3_3:
	@DEBUG_VALUE: USBD_MemCopy:size <- [DW_OP_consts 18446744073709551615, DW_OP_mul, DW_OP_consts 64, DW_OP_plus, DW_OP_constu 1, DW_OP_minus, DW_OP_stack_value] $r2
	.loc	4 567 1 is_stmt 1               @ D:/Software Tools/Keil/Nuvoton/Library/StdDriver/inc\usbd.h:567:1
	bx	lr
.Ltmp65:
.Lfunc_end3:
	.size	USBD_MemCopy, .Lfunc_end3-USBD_MemCopy
	.cfi_endproc
	.cantunwind
	.fnend
                                        @ -- End function
	.section	.text.HID_Init,"ax",%progbits
	.hidden	HID_Init                        @ -- Begin function HID_Init
	.globl	HID_Init
	.p2align	2
	.type	HID_Init,%function
	.code	16                              @ @HID_Init
	.thumb_func
HID_Init:
.Lfunc_begin4:
	.loc	2 178 0                         @ ../hid_transfer.c:178:0
	.fnstart
	.cfi_startproc
@ %bb.0:
	ldr	r0, __arm_cp.4_0
	movs	r1, #0
.Ltmp66:
	.loc	2 181 20 prologue_end           @ ../hid_transfer.c:181:20
	str	r1, [r0]
	movw	r0, #544
	.loc	2 184 5                         @ ../hid_transfer.c:184:5
	movw	r1, #544
	adds	r1, #32
	ldr	r2, __arm_cp.4_1
	str	r1, [r2, #8]
	movs	r1, #8
	.loc	2 186 5                         @ ../hid_transfer.c:186:5
	str	r1, [r2]
	.loc	2 188 5                         @ ../hid_transfer.c:188:5
	str	r0, [r2, #24]
	.loc	2 190 5                         @ ../hid_transfer.c:190:5
	str	r1, [r2, #16]
	movs	r0, #65
	.loc	2 193 5                         @ ../hid_transfer.c:193:5
	str	r0, [r2, #40]
	movs	r0, #16
	.loc	2 195 5                         @ ../hid_transfer.c:195:5
	str	r0, [r2, #32]
	movs	r0, #34
	.loc	2 197 5                         @ ../hid_transfer.c:197:5
	str	r0, [r2, #56]
	movs	r0, #80
	.loc	2 199 5                         @ ../hid_transfer.c:199:5
	str	r0, [r2, #48]
	movs	r0, #64
	.loc	2 201 5                         @ ../hid_transfer.c:201:5
	str	r0, [r2, #52]
	.loc	2 202 1                         @ ../hid_transfer.c:202:1
	bx	lr
.Ltmp67:
	.p2align	2
@ %bb.1:
	.loc	2 0 1 is_stmt 0                 @ ../hid_transfer.c:0:1
__arm_cp.4_0:
	.long	1074528280                      @ 0x400c0018
.Lcpi_end8:
	.size	__arm_cp.4_0, .Lcpi_end8-__arm_cp.4_0
__arm_cp.4_1:
	.long	1074529536                      @ 0x400c0500
.Lcpi_end9:
	.size	__arm_cp.4_1, .Lcpi_end9-__arm_cp.4_1
.Lfunc_end4:
	.size	HID_Init, .Lfunc_end4-HID_Init
	.cfi_endproc
	.cantunwind
	.fnend
                                        @ -- End function
	.section	.text.HID_ClassRequest,"ax",%progbits
	.hidden	HID_ClassRequest                @ -- Begin function HID_ClassRequest
	.globl	HID_ClassRequest
	.p2align	2
	.type	HID_ClassRequest,%function
	.code	16                              @ @HID_ClassRequest
	.thumb_func
HID_ClassRequest:
.Lfunc_begin5:
	.loc	2 205 0 is_stmt 1               @ ../hid_transfer.c:205:0
	.fnstart
	.cfi_startproc
@ %bb.0:
	.save	{r4, lr}
	.pad	#8
	push	{r2, r3, r4, lr}
	.cfi_def_cfa_offset 16
	.cfi_offset lr, -4
	.cfi_offset r4, -8
	mov	r4, sp
.Ltmp68:
	.loc	2 207 5 prologue_end            @ ../hid_transfer.c:207:5
	mov	r0, r4
	bl	USBD_GetSetupPacket
.Ltmp69:
	.loc	2 209 9                         @ ../hid_transfer.c:209:9
	movs	r0, #0
	ldrsb	r1, [r4, r0]
.Ltmp70:
	.loc	2 209 9 is_stmt 0               @ ../hid_transfer.c:209:9
	cmp	r1, #0
	bmi	.LBB5_5
@ %bb.1:
	.loc	2 0 9                           @ ../hid_transfer.c:0:9
	mov	r1, sp
.Ltmp71:
	.loc	2 240 17 is_stmt 1              @ ../hid_transfer.c:240:17
	ldrb	r1, [r1, #1]
	.loc	2 240 9 is_stmt 0               @ ../hid_transfer.c:240:9
	cmp	r1, #10
	beq	.LBB5_7
@ %bb.2:
	cmp	r1, #9
	bne	.LBB5_5
@ %bb.3:
	.loc	2 0 9                           @ ../hid_transfer.c:0:9
	mov	r1, sp
.Ltmp72:
	.loc	2 244 21 is_stmt 1              @ ../hid_transfer.c:244:21
	ldrb	r1, [r1, #3]
.Ltmp73:
	.loc	2 244 21 is_stmt 0              @ ../hid_transfer.c:244:21
	cmp	r1, #3
	bne	.LBB5_6
@ %bb.4:
	.loc	2 0 21                          @ ../hid_transfer.c:0:21
	ldr	r1, __arm_cp.5_0
.Ltmp74:
	.loc	2 247 21 is_stmt 1              @ ../hid_transfer.c:247:21
	ldr	r2, [r1, #20]
	movs	r3, #128
	orrs	r3, r2
	str	r3, [r1, #20]
	.loc	2 248 21                        @ ../hid_transfer.c:248:21
	str	r0, [r1, #16]
.Ltmp75:
	.loc	2 276 1                         @ ../hid_transfer.c:276:1
	pop	{r2, r3, r4, pc}
.LBB5_5:
.Ltmp76:
	.loc	2 0 0 is_stmt 0                 @ ../hid_transfer.c:0:0
	bl	USBD_SetStall
.Ltmp77:
.LBB5_6:
	.loc	2 276 1                         @ ../hid_transfer.c:276:1
	pop	{r2, r3, r4, pc}
.LBB5_7:
	.loc	2 0 1                           @ ../hid_transfer.c:0:1
	ldr	r1, __arm_cp.5_0
.Ltmp78:
	.loc	2 257 17 is_stmt 1              @ ../hid_transfer.c:257:17
	ldr	r2, [r1, #4]
	movs	r3, #128
	orrs	r3, r2
	str	r3, [r1, #4]
	.loc	2 258 17                        @ ../hid_transfer.c:258:17
	str	r0, [r1]
.Ltmp79:
	.loc	2 276 1                         @ ../hid_transfer.c:276:1
	pop	{r2, r3, r4, pc}
.Ltmp80:
	.p2align	2
@ %bb.8:
	.loc	2 0 1 is_stmt 0                 @ ../hid_transfer.c:0:1
__arm_cp.5_0:
	.long	1074529540                      @ 0x400c0504
.Lcpi_end10:
	.size	__arm_cp.5_0, .Lcpi_end10-__arm_cp.5_0
.Lfunc_end5:
	.size	HID_ClassRequest, .Lfunc_end5-HID_ClassRequest
	.cfi_endproc
	.cantunwind
	.fnend
                                        @ -- End function
	.section	.text.USBD_SetStall,"ax",%progbits
	.p2align	2                               @ -- Begin function USBD_SetStall
	.type	USBD_SetStall,%function
	.code	16                              @ @USBD_SetStall
	.thumb_func
USBD_SetStall:
.Lfunc_begin6:
	.loc	4 581 0 is_stmt 1               @ D:/Software Tools/Keil/Nuvoton/Library/StdDriver/inc\usbd.h:581:0
	.fnstart
	.cfi_startproc
@ %bb.0:
	movs	r1, #13
	ldr	r0, __arm_cp.6_0
.Ltmp81:
	@DEBUG_VALUE: USBD_SetStall:i <- 0
	@DEBUG_VALUE: USBD_SetStall:epnum <- 0
.LBB6_1:                                @ =>This Inner Loop Header: Depth=1
	@DEBUG_VALUE: USBD_SetStall:epnum <- 0
	@DEBUG_VALUE: USBD_SetStall:i <- [DW_OP_consts 13, DW_OP_minus, DW_OP_consts 18446744073709551615, DW_OP_div, DW_OP_stack_value] $r1
	.loc	4 584 21 prologue_end           @ D:/Software Tools/Keil/Nuvoton/Library/StdDriver/inc\usbd.h:584:21
	subs	r1, r1, #1
.Ltmp82:
	.loc	4 584 5 is_stmt 0               @ D:/Software Tools/Keil/Nuvoton/Library/StdDriver/inc\usbd.h:584:5
	beq	.LBB6_4
.Ltmp83:
@ %bb.2:                                @   in Loop: Header=BB6_1 Depth=1
	@DEBUG_VALUE: USBD_SetStall:epnum <- 0
	.loc	4 589 18 is_stmt 1              @ D:/Software Tools/Keil/Nuvoton/Library/StdDriver/inc\usbd.h:589:18
	ldr	r2, [r0, #12]
.Ltmp84:
	.loc	4 0 0 is_stmt 0                 @ D:/Software Tools/Keil/Nuvoton/Library/StdDriver/inc\usbd.h:0:0
	adds	r0, #16
.Ltmp85:
	@DEBUG_VALUE: u32Cfg <- $r2
	@DEBUG_VALUE: u32CfgAddr <- [DW_OP_consts 13, DW_OP_minus, DW_OP_consts 18446744073709551615, DW_OP_div, DW_OP_consts 16, DW_OP_mul, DW_OP_consts 1074529544, DW_OP_plus, DW_OP_stack_value] $r1
	@DEBUG_VALUE: USBD_SetStall:i <- [DW_OP_consts 13, DW_OP_minus, DW_OP_consts 18446744073709551615, DW_OP_div, DW_OP_consts 1, DW_OP_plus, DW_OP_stack_value] $r1
	.loc	4 591 13 is_stmt 1              @ D:/Software Tools/Keil/Nuvoton/Library/StdDriver/inc\usbd.h:591:13
	lsls	r2, r2, #28
.Ltmp86:
	bne	.LBB6_1
.Ltmp87:
@ %bb.3:
	@DEBUG_VALUE: USBD_SetStall:i <- [DW_OP_consts 13, DW_OP_minus, DW_OP_consts 18446744073709551615, DW_OP_div, DW_OP_consts 1, DW_OP_plus, DW_OP_stack_value] $r1
	@DEBUG_VALUE: u32CfgAddr <- [DW_OP_consts 13, DW_OP_minus, DW_OP_consts 18446744073709551615, DW_OP_div, DW_OP_consts 16, DW_OP_mul, DW_OP_consts 1074529544, DW_OP_plus, DW_OP_stack_value] $r1
	@DEBUG_VALUE: USBD_SetStall:epnum <- 0
	@DEBUG_VALUE: u32CfgAddr <- [DW_OP_constu 4, DW_OP_shl, DW_OP_plus_uconst 1074529548, DW_OP_stack_value] undef
	.loc	4 594 22                        @ D:/Software Tools/Keil/Nuvoton/Library/StdDriver/inc\usbd.h:594:22
	ldr	r1, [r0]
.Ltmp88:
	@DEBUG_VALUE: u32Cfg <- $r1
	.loc	4 0 22 is_stmt 0                @ D:/Software Tools/Keil/Nuvoton/Library/StdDriver/inc\usbd.h:0:22
	movs	r2, #2
	.loc	4 596 56 is_stmt 1              @ D:/Software Tools/Keil/Nuvoton/Library/StdDriver/inc\usbd.h:596:56
	orrs	r2, r1
	.loc	4 596 46 is_stmt 0              @ D:/Software Tools/Keil/Nuvoton/Library/StdDriver/inc\usbd.h:596:46
	str	r2, [r0]
.Ltmp89:
.LBB6_4:
	@DEBUG_VALUE: USBD_SetStall:epnum <- 0
	.loc	4 600 1 is_stmt 1               @ D:/Software Tools/Keil/Nuvoton/Library/StdDriver/inc\usbd.h:600:1
	bx	lr
.Ltmp90:
	.p2align	2
@ %bb.5:
	.loc	4 0 1 is_stmt 0                 @ D:/Software Tools/Keil/Nuvoton/Library/StdDriver/inc\usbd.h:0:1
__arm_cp.6_0:
	.long	1074529532                      @ 0x400c04fc
.Lcpi_end11:
	.size	__arm_cp.6_0, .Lcpi_end11-__arm_cp.6_0
.Lfunc_end6:
	.size	USBD_SetStall, .Lfunc_end6-USBD_SetStall
	.cfi_endproc
	.cantunwind
	.fnend
                                        @ -- End function
	.hidden	g_u8EP2Ready                    @ @g_u8EP2Ready
	.type	g_u8EP2Ready,%object
	.section	.bss.g_u8EP2Ready,"aw",%nobits
	.globl	g_u8EP2Ready
g_u8EP2Ready:
	.byte	0                               @ 0x0
	.size	g_u8EP2Ready, 1

	.type	.L_MergedGlobals,%object        @ @_MergedGlobals
	.section	.bss..L_MergedGlobals,"aw",%nobits
	.p2align	2
.L_MergedGlobals:
	.zero	68
	.size	.L_MergedGlobals, 68

	.section	".note.GNU-stack","",%progbits
	.eabi_attribute	30, 4	@ Tag_ABI_optimization_goals
	.ARM_attribute	16, 1	@ Tag_AV_eba