	.text
	.syntax unified
	.eabi_attribute	67, "2.09"	@ Tag_conformance
	.cpu	cortex-m23
	.eabi_attribute	6, 16	@ Tag_CPU_arch
	.eabi_attribute	7, 77	@ Tag_CPU_arch_profile
	.eabi_attribute	8, 0	@ Tag_ARM_ISA_use
	.eabi_attribute	9, 3	@ Tag_THUMB_ISA_use
	.eabi_attribute	34, 0	@ Tag_CPU_unaligned_access
	.eabi_attribute	17, 1	@ Tag_ABI_PCS_GOT_use
	.eabi_attribute	20, 2	@ Tag_ABI_FP_denormal
	.eabi_attribute	21, 0	@ Tag_ABI_FP_exceptions
	.eabi_attribute	23, 1	@ Tag_ABI_FP_number_model
	.eabi_attribute	24, 1	@ Tag_ABI_align_needed
	.eabi_attribute	25, 1	@ Tag_ABI_align_preserved
	.eabi_attribute	38, 1	@ Tag_ABI_FP_16bit_format
	.eabi_attribute	18, 2	@ Tag_ABI_PCS_wchar_t
	.eabi_attribute	26, 1	@ Tag_ABI_enum_size
	.eabi_attribute	14, 0	@ Tag_ABI_PCS_R9_use
	.file	"targetdev.c"
	.section	.text.GetApromSize,"ax",%progbits
	.hidden	GetApromSize                    @ -- Begin function GetApromSize
	.globl	GetApromSize
	.p2align	1
	.type	GetApromSize,%function
	.code	16                              @ @GetApromSize
	.thumb_func
GetApromSize:
.Lfunc_begin0:
	.file	1 "D:\\Github Projeleri\\Bootloader\\Nuvoton\\KEIL" "../targetdev.c"
	.loc	1 14 0                          @ ../targetdev.c:14:0
	.fnstart
	.cfi_sections .debug_frame
	.cfi_startproc
@ %bb.0:
	.save	{r4, lr}
	.pad	#8
	push	{r2, r3, r4, lr}
	.cfi_def_cfa_offset 16
	.cfi_offset lr, -4
	.cfi_offset r4, -8
.Ltmp0:
	@DEBUG_VALUE: GetApromSize:size <- 2048
	movw	r1, #2048
.Ltmp1:
.LBB0_1:                                @ =>This Inner Loop Header: Depth=1
	.loc	1 16 14 prologue_end            @ ../targetdev.c:16:14
	mov	r4, r1
.Ltmp2:
	@DEBUG_VALUE: GetApromSize:data <- [DW_OP_plus_uconst 4, DW_OP_deref] $sp
	@DEBUG_VALUE: GetApromSize:size <- $r4
	.loc	1 0 14 is_stmt 0                @ ../targetdev.c:0:14
	add	r1, sp, #4
.Ltmp3:
	.loc	1 21 18 is_stmt 1               @ ../targetdev.c:21:18
	mov	r0, r4
	bl	FMC_Read_User
.Ltmp4:
	@DEBUG_VALUE: result <- $r0
	.loc	1 23 13                         @ ../targetdev.c:23:13
	lsls	r1, r4, #1
.Ltmp5:
	@DEBUG_VALUE: GetApromSize:size <- undef
	.loc	1 0 13 is_stmt 0                @ ../targetdev.c:0:13
	cmp	r0, #0
	bpl	.LBB0_1
.Ltmp6:
@ %bb.2:
	@DEBUG_VALUE: GetApromSize:data <- [DW_OP_plus_uconst 4, DW_OP_deref] $sp
	.loc	1 32 1 is_stmt 1                @ ../targetdev.c:32:1
	mov	r0, r4
	pop	{r2, r3, r4, pc}
.Ltmp7:
.Lfunc_end0:
	.size	GetApromSize, .Lfunc_end0-GetApromSize
	.cfi_endproc
	.cantunwind
	.fnend
                                        @ -- End function
	.section	.text.GetDataFlashInfo,"ax",%progbits
	.hidden	GetDataFlashInfo                @ -- Begin function GetDataFlashInfo
	.globl	GetDataFlashInfo
	.p2align	2
	.type	GetDataFlashInfo,%function
	.code	16                              @ @GetDataFlashInfo
	.thumb_func
GetDataFlashInfo:
.Lfunc_begin1:
	.loc	1 37 0                          @ ../targetdev.c:37:0
	.fnstart
	.cfi_startproc
@ %bb.0:
	@DEBUG_VALUE: GetDataFlashInfo:addr <- $r0
	@DEBUG_VALUE: GetDataFlashInfo:size <- $r1
	.save	{r4, r5, r6, r7, lr}
	.pad	#12
	push	{r1, r2, r3, r4, r5, r6, r7, lr}
	.cfi_def_cfa_offset 32
	.cfi_offset lr, -4
	.cfi_offset r7, -8
	.cfi_offset r6, -12
	.cfi_offset r5, -16
	.cfi_offset r4, -20
	mov	r4, r0
.Ltmp8:
	@DEBUG_VALUE: GetDataFlashInfo:addr <- $r4
	movs	r5, #0
	str	r1, [sp, #4]                    @ 4-byte Spill
.Ltmp9:
	@DEBUG_VALUE: GetDataFlashInfo:size <- [DW_OP_plus_uconst 4] [$sp+0]
	.loc	1 39 11 prologue_end            @ ../targetdev.c:39:11
	str	r5, [r1]
.Ltmp10:
	@DEBUG_VALUE: GetDataFlashInfo:uData <- [DW_OP_plus_uconst 8, DW_OP_deref] $sp
	.loc	1 0 11 is_stmt 0                @ ../targetdev.c:0:11
	movs	r0, #3
	lsls	r6, r0, #20
	add	r7, sp, #8
	.loc	1 40 5 is_stmt 1                @ ../targetdev.c:40:5
	mov	r0, r6
	mov	r1, r7
	bl	FMC_Read_User
.Ltmp11:
	@DEBUG_VALUE: GetDataFlashInfo:uData <- undef
	.loc	1 42 9                          @ ../targetdev.c:42:9
	ldrb	r0, [r7]
	lsls	r0, r0, #31
	bne	.LBB1_6
.Ltmp12:
@ %bb.1:
	@DEBUG_VALUE: GetDataFlashInfo:size <- [DW_OP_plus_uconst 4] [$sp+0]
	@DEBUG_VALUE: GetDataFlashInfo:addr <- $r4
	@DEBUG_VALUE: GetDataFlashInfo:uData <- [DW_OP_plus_uconst 8, DW_OP_deref] $sp
	.loc	1 44 9                          @ ../targetdev.c:44:9
	adds	r0, r6, #4
	add	r1, sp, #8
	bl	FMC_Read_User
.Ltmp13:
	.loc	1 46 21                         @ ../targetdev.c:46:21
	ldr	r0, __arm_cp.1_0
	ldr	r1, [r0]
	.loc	1 46 13 is_stmt 0               @ ../targetdev.c:46:13
	ldr	r3, [sp, #8]
.Ltmp14:
	@DEBUG_VALUE: GetDataFlashInfo:uData <- $r3
	.loc	1 46 33                         @ ../targetdev.c:46:33
	lsls	r2, r3, #23
	mov	r2, r3
	beq	.LBB1_3
.Ltmp15:
@ %bb.2:
	@DEBUG_VALUE: GetDataFlashInfo:uData <- $r3
	@DEBUG_VALUE: GetDataFlashInfo:size <- [DW_OP_plus_uconst 4] [$sp+0]
	@DEBUG_VALUE: GetDataFlashInfo:addr <- $r4
	.loc	1 0 33                          @ ../targetdev.c:0:33
	mov	r2, r1
.Ltmp16:
.LBB1_3:
	@DEBUG_VALUE: GetDataFlashInfo:uData <- $r3
	@DEBUG_VALUE: GetDataFlashInfo:size <- [DW_OP_plus_uconst 4] [$sp+0]
	@DEBUG_VALUE: GetDataFlashInfo:addr <- $r4
	.loc	1 46 33                         @ ../targetdev.c:46:33
	cmp	r3, r1
	bls	.LBB1_5
.Ltmp17:
@ %bb.4:
	@DEBUG_VALUE: GetDataFlashInfo:uData <- $r3
	@DEBUG_VALUE: GetDataFlashInfo:size <- [DW_OP_plus_uconst 4] [$sp+0]
	@DEBUG_VALUE: GetDataFlashInfo:addr <- $r4
	.loc	1 0 33                          @ ../targetdev.c:0:33
	mov	r2, r1
.Ltmp18:
.LBB1_5:
	@DEBUG_VALUE: GetDataFlashInfo:uData <- $r3
	@DEBUG_VALUE: GetDataFlashInfo:size <- [DW_OP_plus_uconst 4] [$sp+0]
	@DEBUG_VALUE: GetDataFlashInfo:addr <- $r4
	@DEBUG_VALUE: GetDataFlashInfo:uData <- $r2
	.loc	1 51 15 is_stmt 1               @ ../targetdev.c:51:15
	str	r2, [r4]
	.loc	1 52 17                         @ ../targetdev.c:52:17
	ldr	r0, [r0]
	.loc	1 52 29 is_stmt 0               @ ../targetdev.c:52:29
	subs	r5, r0, r2
	b	.LBB1_7
.Ltmp19:
.LBB1_6:
	@DEBUG_VALUE: GetDataFlashInfo:size <- [DW_OP_plus_uconst 4] [$sp+0]
	@DEBUG_VALUE: GetDataFlashInfo:addr <- $r4
	.loc	1 56 17 is_stmt 1               @ ../targetdev.c:56:17
	ldr	r0, __arm_cp.1_0
	ldr	r0, [r0]
	.loc	1 56 15 is_stmt 0               @ ../targetdev.c:56:15
	str	r0, [r4]
.Ltmp20:
.LBB1_7:
	@DEBUG_VALUE: GetDataFlashInfo:size <- [DW_OP_plus_uconst 4] [$sp+0]
	@DEBUG_VALUE: GetDataFlashInfo:addr <- $r4
	.loc	1 0 15                          @ ../targetdev.c:0:15
	ldr	r0, [sp, #4]                    @ 4-byte Reload
	str	r5, [r0]
.Ltmp21:
	.loc	1 59 1 is_stmt 1                @ ../targetdev.c:59:1
	pop	{r1, r2, r3, r4, r5, r6, r7, pc}
.Ltmp22:
	.p2align	2
@ %bb.8:
	.loc	1 0 1 is_stmt 0                 @ ../targetdev.c:0:1
__arm_cp.1_0:
	.long	g_apromSize
.Lcpi_end0:
	.size	__arm_cp.1_0, .Lcpi_end0-__arm_cp.1_0
.Lfunc_end1:
	.size	GetDataFlashInfo, .Lfunc_end1-GetDataFlashInfo
	.cfi_endproc
	.cantunwind
	.fnend
                                        @ -- End function
	.file	2 "C:\\Keil_v5\\ARM\\ARMCLANG\\Bin\\..\\include" "stdint.h"
	.section	".note.GNU-stack","",%progbits
	.eabi_attribute	30, 4	@ Tag_ABI_optimization_goals
	.ARM_attribute	16, 1	@ Tag_AV_eba